; Function Attrs: nounwind uwtable
define ptr @l_Std_Time_Month_Ordinal_toMinutes(i8 noundef zeroext %0, ptr noundef %1) local_unnamed_addr #0 {
  %3 = tail call ptr @l_Std_Time_Month_Ordinal_toSeconds(i8 noundef zeroext %0, ptr noundef %1)
  %4 = load ptr, ptr @l_Std_Time_Month_Ordinal_toMinutes___closed__1, align 8, !tbaa !11
  %5 = ptrtoint ptr %3 to i64
  %6 = and i64 %5, 1
  %.not.i5 = icmp eq i64 %6, 0
  br i1 %.not.i5, label %33, label %7, !prof !13

7:                                                ; preds = %2
  %8 = ptrtoint ptr %4 to i64
  %9 = and i64 %8, 1
  %.not18.i = icmp eq i64 %9, 0
  br i1 %.not18.i, label %lean_int_ediv.exit.thread8, label %11, !prof !13

lean_int_ediv.exit.thread8:                       ; preds = %7
  %10 = tail call ptr @lean_int_big_ediv(ptr noundef %3, ptr noundef %4) #5
  br label %lean_dec.exit

11:                                               ; preds = %7
  %12 = lshr i64 %8, 1
  %13 = trunc i64 %12 to i32
  %14 = icmp eq i32 %13, 0
  br i1 %14, label %lean_dec.exit, label %15

15:                                               ; preds = %11
  %sext.i = shl i64 %12, 32
  %16 = ashr exact i64 %sext.i, 32
  %17 = shl i64 %5, 31
  %18 = ashr i64 %17, 32
  %19 = sdiv i64 %18, %16
  %20 = srem i64 %18, %16
  %21 = icmp slt i64 %20, 0
  %22 = icmp sgt i32 %13, 0
  %.v.i = select i1 %22, i64 -1, i64 1
  %23 = select i1 %21, i64 %.v.i, i64 0
  %.016.i = add nsw i64 %23, %19
  %24 = add nsw i64 %.016.i, 2147483648
  %25 = icmp ult i64 %24, 4294967296
  br i1 %25, label %26, label %31, !prof !10

26:                                               ; preds = %15
  %27 = shl nsw i64 %.016.i, 1
  %28 = and i64 %27, 8589934590
  %29 = or disjoint i64 %28, 1
  %30 = inttoptr i64 %29 to ptr
  br label %lean_dec.exit

31:                                               ; preds = %15
  %32 = tail call ptr @lean_big_int64_to_int(i64 noundef range(i64 -4611686016279904256, 4611686018427387905) %.016.i) #5
  br label %lean_dec.exit

33:                                               ; preds = %2
  %34 = tail call ptr @lean_int_big_ediv(ptr noundef %3, ptr noundef %4) #5
  %35 = load i32, ptr %3, align 4, !tbaa !5
  %36 = icmp sgt i32 %35, 1
  br i1 %36, label %37, label %39, !prof !10

37:                                               ; preds = %33
  %38 = add nsw i32 %35, -1
  store i32 %38, ptr %3, align 4, !tbaa !5
  br label %lean_dec.exit

39:                                               ; preds = %33
  %.not.i = icmp eq i32 %35, 0
  br i1 %.not.i, label %lean_dec.exit, label %40

40:                                               ; preds = %39
  tail call void @lean_dec_ref_cold(ptr noundef nonnull %3) #5
  br label %lean_dec.exit

lean_dec.exit:                                    ; preds = %31, %26, %11, %40, %39, %37, %lean_int_ediv.exit.thread8
  %.1.i7 = phi ptr [ %10, %lean_int_ediv.exit.thread8 ], [ %34, %37 ], [ %34, %39 ], [ %34, %40 ], [ %32, %31 ], [ %30, %26 ], [ inttoptr (i64 1 to ptr), %11 ]
  ret ptr %.1.i7
}